target datalayout = "e-m:e-p270:32:32-p271:32:32-p272:64:64-i64:64-i128:128-f80:128-n8:16:32:64-S128"
target triple = "x86_64-unknown-linux-gnu"

%"class.QuantLib::Date" = type { i64 }

; Function Attrs: inlinehint mustprogress uwtable
define linkonce_odr noundef i32 @_ZNK8QuantLib4Date9dayOfYearEv(ptr noundef nonnull align 8 dereferenceable(8) %this) #6 comdat align 2 {
entry:
  %this.addr = alloca ptr, align 8
  store ptr %this, ptr %this.addr, align 8, !tbaa !3
  %this1 = load ptr, ptr %this.addr, align 8
  %serialNumber_ = getelementptr inbounds nuw %"class.QuantLib::Date", ptr %this1, i32 0, i32 0
  %0 = load i64, ptr %serialNumber_, align 8, !tbaa !21
  %call = call noundef i32 @_ZNK8QuantLib4Date4yearEv(ptr noundef nonnull align 8 dereferenceable(8) %this1)
  %call2 = call noundef i64 @_ZN8QuantLib4Date10yearOffsetEi(i32 noundef %call)
  %sub = sub nsw i64 %0, %call2
  %conv = trunc i64 %sub to i32
  ret i32 %conv
}

; Function Attrs: inlinehint mustprogress uwtable
define linkonce_odr noundef i32 @_ZNK8QuantLib4Date10dayOfMonthEv(ptr noundef nonnull align 8 dereferenceable(8) %this) #6 comdat align 2 {
entry:
  %this.addr = alloca ptr, align 8
  store ptr %this, ptr %this.addr, align 8, !tbaa !3
  %this1 = load ptr, ptr %this.addr, align 8
  %call = call noundef i32 @_ZNK8QuantLib4Date9dayOfYearEv(ptr noundef nonnull align 8 dereferenceable(8) %this1)
  %call2 = call noundef i32 @_ZNK8QuantLib4Date5monthEv(ptr noundef nonnull align 8 dereferenceable(8) %this1)
  %call3 = call noundef i32 @_ZNK8QuantLib4Date4yearEv(ptr noundef nonnull align 8 dereferenceable(8) %this1)
  %call4 = call noundef zeroext i1 @_ZN8QuantLib4Date6isLeapEi(i32 noundef %call3)
  %call5 = call noundef i32 @_ZN8QuantLib4Date11monthOffsetENS_5MonthEb(i32 noundef %call2, i1 noundef zeroext %call4)
  %sub = sub nsw i32 %call, %call5
  ret i32 %sub
}

; Function Attrs: inlinehint mustprogress nounwind uwtable
define linkonce_odr noundef i32 @_ZNK8QuantLib4Date7weekdayEv(ptr noundef nonnull align 8 dereferenceable(8) %this) #4 comdat align 2 {
entry:
  %this.addr = alloca ptr, align 8
  %w = alloca i32, align 4
  store ptr %this, ptr %this.addr, align 8, !tbaa !3
  %this1 = load ptr, ptr %this.addr, align 8
  call void @llvm.lifetime.start.p0(i64 4, ptr %w) #2
  %serialNumber_ = getelementptr inbounds nuw %"class.QuantLib::Date", ptr %this1, i32 0, i32 0
  %0 = load i64, ptr %serialNumber_, align 8, !tbaa !21
  %rem = srem i64 %0, 7
  %conv = trunc i64 %rem to i32
  store i32 %conv, ptr %w, align 4, !tbaa !17
  %1 = load i32, ptr %w, align 4, !tbaa !17
  %cmp = icmp eq i32 %1, 0
  br i1 %cmp, label %cond.true, label %cond.false

cond.true:                                        ; preds = %entry
  br label %cond.end

cond.false:                                       ; preds = %entry
  %2 = load i32, ptr %w, align 4, !tbaa !17
  br label %cond.end

cond.end:                                         ; preds = %cond.false, %cond.true
  %cond = phi i32 [ 7, %cond.true ], [ %2, %cond.false ]
  call void @llvm.lifetime.end.p0(i64 4, ptr %w) #2
  ret i32 %cond
}

; Function Attrs: mustprogress uwtable
define noundef zeroext i1 @_ZNK8QuantLib9Argentina10MervalImpl13isBusinessDayERKNS_4DateE(ptr noundef nonnull align 8 dereferenceable(104) %this, ptr noundef nonnull align 8 dereferenceable(8) %date) unnamed_addr #0 align 2 {
entry:
  %retval = alloca i1, align 1
  %this.addr = alloca ptr, align 8
  %date.addr = alloca ptr, align 8
  %w = alloca i32, align 4
  %d = alloca i32, align 4
  %dd = alloca i32, align 4
  %m = alloca i32, align 4
  %y = alloca i32, align 4
  %em = alloca i32, align 4
  %cleanup.dest.slot = alloca i32, align 4
  store ptr %this, ptr %this.addr, align 8, !tbaa !3
  store ptr %date, ptr %date.addr, align 8, !tbaa !3
  %this1 = load ptr, ptr %this.addr, align 8
  call void @llvm.lifetime.start.p0(i64 4, ptr %w) #2
  %0 = load ptr, ptr %date.addr, align 8, !tbaa !3
  %call = call noundef i32 @_ZNK8QuantLib4Date7weekdayEv(ptr noundef nonnull align 8 dereferenceable(8) %0)
  store i32 %call, ptr %w, align 4, !tbaa !15
  call void @llvm.lifetime.start.p0(i64 4, ptr %d) #2
  %1 = load ptr, ptr %date.addr, align 8, !tbaa !3
  %call2 = call noundef i32 @_ZNK8QuantLib4Date10dayOfMonthEv(ptr noundef nonnull align 8 dereferenceable(8) %1)
  store i32 %call2, ptr %d, align 4, !tbaa !17
  call void @llvm.lifetime.start.p0(i64 4, ptr %dd) #2
  %2 = load ptr, ptr %date.addr, align 8, !tbaa !3
  %call3 = call noundef i32 @_ZNK8QuantLib4Date9dayOfYearEv(ptr noundef nonnull align 8 dereferenceable(8) %2)
  store i32 %call3, ptr %dd, align 4, !tbaa !17
  call void @llvm.lifetime.start.p0(i64 4, ptr %m) #2
  %3 = load ptr, ptr %date.addr, align 8, !tbaa !3
  %call4 = call noundef i32 @_ZNK8QuantLib4Date5monthEv(ptr noundef nonnull align 8 dereferenceable(8) %3)
  store i32 %call4, ptr %m, align 4, !tbaa !19
  call void @llvm.lifetime.start.p0(i64 4, ptr %y) #2
  %4 = load ptr, ptr %date.addr, align 8, !tbaa !3
  %call5 = call noundef i32 @_ZNK8QuantLib4Date4yearEv(ptr noundef nonnull align 8 dereferenceable(8) %4)
  store i32 %call5, ptr %y, align 4, !tbaa !17
  call void @llvm.lifetime.start.p0(i64 4, ptr %em) #2
  %5 = load i32, ptr %y, align 4, !tbaa !17
  %call6 = call noundef i32 @_ZN8QuantLib8Calendar11WesternImpl12easterMondayEi(i32 noundef %5)
  store i32 %call6, ptr %em, align 4, !tbaa !17
  %6 = load i32, ptr %w, align 4, !tbaa !15
  %call7 = call noundef zeroext i1 @_ZNK8QuantLib8Calendar11WesternImpl9isWeekendENS_7WeekdayE(ptr noundef nonnull align 8 dereferenceable(104) %this1, i32 noundef %6)
  br i1 %call7, label %if.then, label %lor.lhs.false

lor.lhs.false:                                    ; preds = %entry
  %7 = load i32, ptr %d, align 4, !tbaa !17
  %cmp = icmp eq i32 %7, 1
  br i1 %cmp, label %land.lhs.true, label %lor.lhs.false9

land.lhs.true:                                    ; preds = %lor.lhs.false
  %8 = load i32, ptr %m, align 4, !tbaa !19
  %cmp8 = icmp eq i32 %8, 1
  br i1 %cmp8, label %if.then, label %lor.lhs.false9

lor.lhs.false9:                                   ; preds = %land.lhs.true, %lor.lhs.false
  %9 = load i32, ptr %dd, align 4, !tbaa !17
  %10 = load i32, ptr %em, align 4, !tbaa !17
  %sub = sub nsw i32 %10, 4
  %cmp10 = icmp eq i32 %9, %sub
  br i1 %cmp10, label %if.then, label %lor.lhs.false11

lor.lhs.false11:                                  ; preds = %lor.lhs.false9
  %11 = load i32, ptr %dd, align 4, !tbaa !17
  %12 = load i32, ptr %em, align 4, !tbaa !17
  %sub12 = sub nsw i32 %12, 3
  %cmp13 = icmp eq i32 %11, %sub12
  br i1 %cmp13, label %if.then, label %lor.lhs.false14

lor.lhs.false14:                                  ; preds = %lor.lhs.false11
  %13 = load i32, ptr %d, align 4, !tbaa !17
  %cmp15 = icmp eq i32 %13, 1
  br i1 %cmp15, label %land.lhs.true16, label %lor.lhs.false18

land.lhs.true16:                                  ; preds = %lor.lhs.false14
  %14 = load i32, ptr %m, align 4, !tbaa !19
  %cmp17 = icmp eq i32 %14, 5
  br i1 %cmp17, label %if.then, label %lor.lhs.false18

lor.lhs.false18:                                  ; preds = %land.lhs.true16, %lor.lhs.false14
  %15 = load i32, ptr %d, align 4, !tbaa !17
  %cmp19 = icmp eq i32 %15, 25
  br i1 %cmp19, label %land.lhs.true20, label %lor.lhs.false22

land.lhs.true20:                                  ; preds = %lor.lhs.false18
  %16 = load i32, ptr %m, align 4, !tbaa !19
  %cmp21 = icmp eq i32 %16, 5
  br i1 %cmp21, label %if.then, label %lor.lhs.false22

lor.lhs.false22:                                  ; preds = %land.lhs.true20, %lor.lhs.false18
  %17 = load i32, ptr %d, align 4, !tbaa !17
  %cmp23 = icmp sge i32 %17, 15
  br i1 %cmp23, label %land.lhs.true24, label %lor.lhs.false30

land.lhs.true24:                                  ; preds = %lor.lhs.false22
  %18 = load i32, ptr %d, align 4, !tbaa !17
  %cmp25 = icmp sle i32 %18, 21
  br i1 %cmp25, label %land.lhs.true26, label %lor.lhs.false30

land.lhs.true26:                                  ; preds = %land.lhs.true24
  %19 = load i32, ptr %w, align 4, !tbaa !15
  %cmp27 = icmp eq i32 %19, 2
  br i1 %cmp27, label %land.lhs.true28, label %lor.lhs.false30

land.lhs.true28:                                  ; preds = %land.lhs.true26
  %20 = load i32, ptr %m, align 4, !tbaa !19
  %cmp29 = icmp eq i32 %20, 6
  br i1 %cmp29, label %if.then, label %lor.lhs.false30

lor.lhs.false30:                                  ; preds = %land.lhs.true28, %land.lhs.true26, %land.lhs.true24, %lor.lhs.false22
  %21 = load i32, ptr %d, align 4, !tbaa !17
  %cmp31 = icmp eq i32 %21, 9
  br i1 %cmp31, label %land.lhs.true32, label %lor.lhs.false34

land.lhs.true32:                                  ; preds = %lor.lhs.false30
  %22 = load i32, ptr %m, align 4, !tbaa !19
  %cmp33 = icmp eq i32 %22, 7
  br i1 %cmp33, label %if.then, label %lor.lhs.false34

lor.lhs.false34:                                  ; preds = %land.lhs.true32, %lor.lhs.false30
  %23 = load i32, ptr %d, align 4, !tbaa !17
  %cmp35 = icmp sge i32 %23, 15
  br i1 %cmp35, label %land.lhs.true36, label %lor.lhs.false42

land.lhs.true36:                                  ; preds = %lor.lhs.false34
  %24 = load i32, ptr %d, align 4, !tbaa !17
  %cmp37 = icmp sle i32 %24, 21
  br i1 %cmp37, label %land.lhs.true38, label %lor.lhs.false42

land.lhs.true38:                                  ; preds = %land.lhs.true36
  %25 = load i32, ptr %w, align 4, !tbaa !15
  %cmp39 = icmp eq i32 %25, 2
  br i1 %cmp39, label %land.lhs.true40, label %lor.lhs.false42

land.lhs.true40:                                  ; preds = %land.lhs.true38
  %26 = load i32, ptr %m, align 4, !tbaa !19
  %cmp41 = icmp eq i32 %26, 8
  br i1 %cmp41, label %if.then, label %lor.lhs.false42

lor.lhs.false42:                                  ; preds = %land.lhs.true40, %land.lhs.true38, %land.lhs.true36, %lor.lhs.false34
  %27 = load i32, ptr %d, align 4, !tbaa !17
  %cmp43 = icmp eq i32 %27, 10
  br i1 %cmp43, label %land.lhs.true52, label %lor.lhs.false44

lor.lhs.false44:                                  ; preds = %lor.lhs.false42
  %28 = load i32, ptr %d, align 4, !tbaa !17
  %cmp45 = icmp eq i32 %28, 11
  br i1 %cmp45, label %land.lhs.true52, label %lor.lhs.false46

lor.lhs.false46:                                  ; preds = %lor.lhs.false44
  %29 = load i32, ptr %d, align 4, !tbaa !17
  %cmp47 = icmp eq i32 %29, 12
  br i1 %cmp47, label %land.lhs.true52, label %lor.lhs.false48

lor.lhs.false48:                                  ; preds = %lor.lhs.false46
  %30 = load i32, ptr %d, align 4, !tbaa !17
  %cmp49 = icmp eq i32 %30, 15
  br i1 %cmp49, label %land.lhs.true52, label %lor.lhs.false50

lor.lhs.false50:                                  ; preds = %lor.lhs.false48
  %31 = load i32, ptr %d, align 4, !tbaa !17
  %cmp51 = icmp eq i32 %31, 16
  br i1 %cmp51, label %land.lhs.true52, label %lor.lhs.false56

land.lhs.true52:                                  ; preds = %lor.lhs.false50, %lor.lhs.false48, %lor.lhs.false46, %lor.lhs.false44, %lor.lhs.false42
  %32 = load i32, ptr %w, align 4, !tbaa !15
  %cmp53 = icmp eq i32 %32, 2
  br i1 %cmp53, label %land.lhs.true54, label %lor.lhs.false56

land.lhs.true54:                                  ; preds = %land.lhs.true52
  %33 = load i32, ptr %m, align 4, !tbaa !19
  %cmp55 = icmp eq i32 %33, 10
  br i1 %cmp55, label %if.then, label %lor.lhs.false56

lor.lhs.false56:                                  ; preds = %land.lhs.true54, %land.lhs.true52, %lor.lhs.false50
  %34 = load i32, ptr %d, align 4, !tbaa !17
  %cmp57 = icmp eq i32 %34, 8
  br i1 %cmp57, label %land.lhs.true58, label %lor.lhs.false60

land.lhs.true58:                                  ; preds = %lor.lhs.false56
  %35 = load i32, ptr %m, align 4, !tbaa !19
  %cmp59 = icmp eq i32 %35, 12
  br i1 %cmp59, label %if.then, label %lor.lhs.false60

lor.lhs.false60:                                  ; preds = %land.lhs.true58, %lor.lhs.false56
  %36 = load i32, ptr %d, align 4, !tbaa !17
  %cmp61 = icmp eq i32 %36, 24
  br i1 %cmp61, label %land.lhs.true62, label %lor.lhs.false64

land.lhs.true62:                                  ; preds = %lor.lhs.false60
  %37 = load i32, ptr %m, align 4, !tbaa !19
  %cmp63 = icmp eq i32 %37, 12
  br i1 %cmp63, label %if.then, label %lor.lhs.false64

lor.lhs.false64:                                  ; preds = %land.lhs.true62, %lor.lhs.false60
  %38 = load i32, ptr %d, align 4, !tbaa !17
  %cmp65 = icmp eq i32 %38, 31
  br i1 %cmp65, label %land.lhs.true70, label %lor.lhs.false66

lor.lhs.false66:                                  ; preds = %lor.lhs.false64
  %39 = load i32, ptr %d, align 4, !tbaa !17
  %cmp67 = icmp eq i32 %39, 30
  br i1 %cmp67, label %land.lhs.true68, label %if.end

land.lhs.true68:                                  ; preds = %lor.lhs.false66
  %40 = load i32, ptr %w, align 4, !tbaa !15
  %cmp69 = icmp eq i32 %40, 6
  br i1 %cmp69, label %land.lhs.true70, label %if.end

land.lhs.true70:                                  ; preds = %land.lhs.true68, %lor.lhs.false64
  %41 = load i32, ptr %m, align 4, !tbaa !19
  %cmp71 = icmp eq i32 %41, 12
  br i1 %cmp71, label %if.then, label %if.end

if.then:                                          ; preds = %land.lhs.true70, %land.lhs.true62, %land.lhs.true58, %land.lhs.true54, %land.lhs.true40, %land.lhs.true32, %land.lhs.true28, %land.lhs.true20, %land.lhs.true16, %lor.lhs.false11, %lor.lhs.false9, %land.lhs.true, %entry
  store i1 false, ptr %retval, align 1
  store i32 1, ptr %cleanup.dest.slot, align 4
  br label %cleanup

if.end:                                           ; preds = %land.lhs.true70, %land.lhs.true68, %lor.lhs.false66
  store i1 true, ptr %retval, align 1
  store i32 1, ptr %cleanup.dest.slot, align 4
  br label %cleanup

cleanup:                                          ; preds = %if.end, %if.then
  call void @llvm.lifetime.end.p0(i64 4, ptr %em) #2
  call void @llvm.lifetime.end.p0(i64 4, ptr %y) #2
  call void @llvm.lifetime.end.p0(i64 4, ptr %m) #2
  call void @llvm.lifetime.end.p0(i64 4, ptr %dd) #2
  call void @llvm.lifetime.end.p0(i64 4, ptr %d) #2
  call void @llvm.lifetime.end.p0(i64 4, ptr %w) #2
  %42 = load i1, ptr %retval, align 1
  ret i1 %42
}