; Function Attrs: mustprogress uwtable
define noundef zeroext i1 @_ZNK8QuantLib9Argentina10MervalImpl13isBusinessDayERKNS_4DateE(ptr noundef nonnull align 8 dereferenceable(104) %this, ptr noundef nonnull align 8 dereferenceable(8) %date) unnamed_addr #0 align 2 {
entry:
  %0 = load i64, ptr %date, align 8, !tbaa !23
  %rem.i = srem i64 %0, 7
  %conv.i = trunc nsw i64 %rem.i to i32
  %cmp.i = icmp eq i64 %rem.i, 0
  %cond.i = select i1 %cmp.i, i32 7, i32 %conv.i
  %call.i.i = tail call noundef i32 @_ZNK8QuantLib4Date4yearEv(ptr noundef nonnull align 8 dereferenceable(8) %date)
  %call2.i.i = tail call noundef i64 @_ZN8QuantLib4Date10yearOffsetEi(i32 noundef %call.i.i)
  %sub.i.i = sub nsw i64 %0, %call2.i.i
  %conv.i.i = trunc i64 %sub.i.i to i32
  %call2.i = tail call noundef i32 @_ZNK8QuantLib4Date5monthEv(ptr noundef nonnull align 8 dereferenceable(8) %date)
  %call3.i = tail call noundef i32 @_ZNK8QuantLib4Date4yearEv(ptr noundef nonnull align 8 dereferenceable(8) %date)
  %call4.i = tail call noundef zeroext i1 @_ZN8QuantLib4Date6isLeapEi(i32 noundef %call3.i)
  %call5.i = tail call noundef i32 @_ZN8QuantLib4Date11monthOffsetENS_5MonthEb(i32 noundef %call2.i, i1 noundef zeroext %call4.i)
  %sub.i = sub nsw i32 %conv.i.i, %call5.i
  %1 = load i64, ptr %date, align 8, !tbaa !23
  %call.i = tail call noundef i32 @_ZNK8QuantLib4Date4yearEv(ptr noundef nonnull align 8 dereferenceable(8) %date)
  %call2.i61 = tail call noundef i64 @_ZN8QuantLib4Date10yearOffsetEi(i32 noundef %call.i)
  %call4 = tail call noundef i32 @_ZNK8QuantLib4Date5monthEv(ptr noundef nonnull align 8 dereferenceable(8) %date)
  %call5 = tail call noundef i32 @_ZNK8QuantLib4Date4yearEv(ptr noundef nonnull align 8 dereferenceable(8) %date)
  %call6 = tail call noundef i32 @_ZN8QuantLib8Calendar11WesternImpl12easterMondayEi(i32 noundef %call5)
  %call7 = tail call noundef zeroext i1 @_ZNK8QuantLib8Calendar11WesternImpl9isWeekendENS_7WeekdayE(ptr noundef nonnull align 8 dereferenceable(104) %this, i32 noundef %cond.i)
  br i1 %call7, label %cleanup, label %lor.lhs.false

lor.lhs.false:                                    ; preds = %entry
  %sub.i62 = sub nsw i64 %1, %call2.i61
  %conv.i63 = trunc i64 %sub.i62 to i32
  %cmp = icmp eq i32 %sub.i, 1
  %cmp8 = icmp eq i32 %call4, 1
  %or.cond = and i1 %cmp, %cmp8
  %sub = add nsw i32 %call6, -4
  %cmp10 = icmp eq i32 %sub, %conv.i63
  %or.cond56 = select i1 %or.cond, i1 true, i1 %cmp10
  %sub12 = add nsw i32 %call6, -3
  %cmp13 = icmp eq i32 %sub12, %conv.i63
  %or.cond57 = select i1 %or.cond56, i1 true, i1 %cmp13
  br i1 %or.cond57, label %cleanup, label %lor.lhs.false14

lor.lhs.false14:                                  ; preds = %lor.lhs.false
  %cmp17 = icmp eq i32 %call4, 5
  %cmp19 = icmp eq i32 %sub.i, 25
  %or.cond164 = or i1 %cmp, %cmp19
  %or.cond58 = and i1 %or.cond164, %cmp17
  br i1 %or.cond58, label %cleanup, label %lor.lhs.false22

lor.lhs.false22:                                  ; preds = %lor.lhs.false14
  %2 = add i32 %sub.i, -15
  %or.cond3 = icmp ult i32 %2, 7
  %cmp27 = icmp eq i32 %cond.i, 2
  %or.cond4 = and i1 %cmp27, %or.cond3
  %cmp29 = icmp eq i32 %call4, 6
  %or.cond5 = and i1 %or.cond4, %cmp29
  br i1 %or.cond5, label %cleanup, label %lor.lhs.false30

lor.lhs.false30:                                  ; preds = %lor.lhs.false22
  %cmp31 = icmp eq i32 %sub.i, 9
  %cmp33 = icmp eq i32 %call4, 7
  %or.cond6 = and i1 %cmp31, %cmp33
  %cmp41 = icmp eq i32 %call4, 8
  %or.cond9 = and i1 %or.cond4, %cmp41
  %or.cond59 = or i1 %or.cond6, %or.cond9
  br i1 %or.cond59, label %cleanup, label %lor.lhs.false42

lor.lhs.false42:                                  ; preds = %lor.lhs.false30
  %3 = and i32 %sub.i, -2
  %or.cond10 = icmp eq i32 %3, 10
  %cmp47 = icmp eq i32 %sub.i, 12
  %or.cond11 = or i1 %cmp47, %or.cond10
  %4 = icmp ult i32 %2, 2
  %or.cond13 = or i1 %4, %or.cond11
  %cmp55 = icmp eq i32 %call4, 10
  %5 = and i1 %or.cond13, %cmp55
  %or.cond15 = and i1 %cmp27, %5
  br i1 %or.cond15, label %cleanup, label %lor.lhs.false56

lor.lhs.false56:                                  ; preds = %lor.lhs.false42
  %cmp59 = icmp eq i32 %call4, 12
  %6 = and i32 %sub.i, -17
  %or.cond1665 = icmp eq i32 %6, 8
  %or.cond60 = and i1 %or.cond1665, %cmp59
  br i1 %or.cond60, label %cleanup, label %lor.lhs.false64

lor.lhs.false64:                                  ; preds = %lor.lhs.false56
  %cmp65 = icmp eq i32 %sub.i, 31
  br i1 %cmp65, label %land.lhs.true70, label %lor.lhs.false66

lor.lhs.false66:                                  ; preds = %lor.lhs.false64
  %cmp67 = icmp eq i32 %sub.i, 30
  %cmp69 = icmp eq i32 %cond.i, 6
  %or.cond18 = and i1 %cmp69, %cmp67
  %or.cond19 = and i1 %or.cond18, %cmp59
  br i1 %or.cond19, label %cleanup, label %if.end

land.lhs.true70:                                  ; preds = %lor.lhs.false64
  br i1 %cmp59, label %cleanup, label %if.end

if.end:                                           ; preds = %land.lhs.true70, %lor.lhs.false66
  br label %cleanup

cleanup:                                          ; preds = %entry, %land.lhs.true70, %lor.lhs.false, %lor.lhs.false14, %lor.lhs.false22, %lor.lhs.false30, %lor.lhs.false42, %lor.lhs.false56, %lor.lhs.false66, %if.end
  %retval.0 = phi i1 [ true, %if.end ], [ false, %lor.lhs.false66 ], [ false, %lor.lhs.false56 ], [ false, %lor.lhs.false42 ], [ false, %lor.lhs.false30 ], [ false, %lor.lhs.false22 ], [ false, %lor.lhs.false14 ], [ false, %lor.lhs.false ], [ false, %land.lhs.true70 ], [ false, %entry ]
  ret i1 %retval.0
}